; Function Attrs: mustprogress uwtable
define dso_local void @_ZNK24cmLocalGhsMultiGenerator18GetTargetDirectoryB5cxx11EPK17cmGeneratorTarget(ptr dead_on_unwind noalias writable sret(%"class.std::__cxx11::basic_string") align 8 %0, ptr nocapture nonnull readnone align 8 %1, ptr noundef nonnull %2) unnamed_addr #3 align 2 personality ptr @__gxx_personality_v0 {
  %4 = alloca [2 x %"struct.std::pair.403"], align 8
  %5 = tail call noundef nonnull align 8 dereferenceable(32) ptr @_ZNK17cmGeneratorTarget7GetNameB5cxx11Ev(ptr noundef nonnull align 8 dereferenceable(2728) %2)
  call void @llvm.lifetime.start.p0(i64 48, ptr nonnull %4)
  %6 = tail call { i64, ptr } @_ZNKSt7__cxx1112basic_stringIcSt11char_traitsIcESaIcEEcvSt17basic_string_viewIcS2_EEv(ptr noundef nonnull align 8 dereferenceable(32) %5) #12, !noalias !5
  %7 = extractvalue { i64, ptr } %6, 0
  %8 = extractvalue { i64, ptr } %6, 1
  store i64 %7, ptr %4, align 8, !alias.scope !8, !noalias !5
  %.sroa.2.0..sroa_idx.i.i = getelementptr inbounds i8, ptr %4, i64 8
  store ptr %8, ptr %.sroa.2.0..sroa_idx.i.i, align 8, !alias.scope !8, !noalias !5
  %9 = getelementptr inbounds i8, ptr %4, i64 16
  store ptr null, ptr %9, align 8, !alias.scope !8, !noalias !5
  %10 = getelementptr inbounds i8, ptr %4, i64 24
  store i64 4, ptr %10, align 8, !alias.scope !11, !noalias !5
  %.sroa.2.0..sroa_idx.i6.i = getelementptr inbounds i8, ptr %4, i64 32
  store ptr @.str, ptr %.sroa.2.0..sroa_idx.i6.i, align 8, !alias.scope !11, !noalias !5
  %11 = getelementptr inbounds i8, ptr %4, i64 40
  store ptr null, ptr %11, align 8, !alias.scope !11, !noalias !5
  call void @_Z10cmCatViewsSt16initializer_listISt4pairISt17basic_string_viewIcSt11char_traitsIcEEPNSt7__cxx1112basic_stringIcS3_SaIcEEEEE(ptr dead_on_unwind writable sret(%"class.std::__cxx11::basic_string") align 8 %0, ptr nonnull %4, i64 2)
  call void @llvm.lifetime.end.p0(i64 48, ptr nonnull %4)
  ret void
}